; Function Attrs: mustprogress nofree nounwind uwtable
define dso_local void @_ZNSt3__16threadD2Ev(ptr noundef nonnull readonly align 8 captures(none) dereferenceable(8) %0) unnamed_addr #0 align 2 personality ptr @__gxx_personality_v0 {
  %2 = load i64, ptr %0, align 8, !tbaa !5
  %3 = icmp eq i64 %2, 0
  br i1 %3, label %5, label %4

4:                                                ; preds = %1
  tail call void @_ZSt9terminatev() #20
  unreachable

5:                                                ; preds = %1
  ret void
}